target datalayout = "e-m:e-p270:32:32-p271:32:32-p272:64:64-i64:64-i128:128-f80:128-n8:16:32:64-S128"
target triple = "x86_64-pc-linux-gnu"

; Function Attrs: nounwind uwtable
define void @rgb15tobgr15(ptr noundef %0, ptr noundef %1, i32 noundef %2) #0 {
  %4 = alloca ptr, align 8
  %5 = alloca ptr, align 8
  %6 = alloca i32, align 4
  %7 = alloca i32, align 4
  %8 = alloca i32, align 4
  %9 = alloca i32, align 4
  %10 = alloca i32, align 4
  store ptr %0, ptr %4, align 8, !tbaa !4
  store ptr %1, ptr %5, align 8, !tbaa !4
  store i32 %2, ptr %6, align 4, !tbaa !9
  call void @llvm.lifetime.start.p0(i64 4, ptr %7) #5
  call void @llvm.lifetime.start.p0(i64 4, ptr %8) #5
  %11 = load i32, ptr %6, align 4, !tbaa !9
  %12 = ashr i32 %11, 1
  store i32 %12, ptr %8, align 4, !tbaa !9
  store i32 0, ptr %7, align 4, !tbaa !9
  br label %13

13:                                               ; preds = %39, %3
  %14 = load i32, ptr %7, align 4, !tbaa !9
  %15 = load i32, ptr %8, align 4, !tbaa !9
  %16 = icmp slt i32 %14, %15
  br i1 %16, label %17, label %42

17:                                               ; preds = %13
  call void @llvm.lifetime.start.p0(i64 4, ptr %9) #5
  %18 = load ptr, ptr %4, align 8, !tbaa !4
  %19 = load i32, ptr %7, align 4, !tbaa !9
  %20 = sext i32 %19 to i64
  %21 = getelementptr inbounds i16, ptr %18, i64 %20
  %22 = load i16, ptr %21, align 2, !tbaa !22
  %23 = zext i16 %22 to i32
  store i32 %23, ptr %9, align 4, !tbaa !9
  call void @llvm.lifetime.start.p0(i64 4, ptr %10) #5
  %24 = load i32, ptr %9, align 4, !tbaa !9
  %25 = and i32 %24, 31775
  store i32 %25, ptr %10, align 4, !tbaa !9
  %26 = load i32, ptr %10, align 4, !tbaa !9
  %27 = lshr i32 %26, 10
  %28 = load i32, ptr %9, align 4, !tbaa !9
  %29 = and i32 %28, 992
  %30 = or i32 %27, %29
  %31 = load i32, ptr %10, align 4, !tbaa !9
  %32 = shl i32 %31, 10
  %33 = or i32 %30, %32
  %34 = trunc i32 %33 to i16
  %35 = load ptr, ptr %5, align 8, !tbaa !4
  %36 = load i32, ptr %7, align 4, !tbaa !9
  %37 = sext i32 %36 to i64
  %38 = getelementptr inbounds i16, ptr %35, i64 %37
  store i16 %34, ptr %38, align 2, !tbaa !22
  call void @llvm.lifetime.end.p0(i64 4, ptr %10) #5
  call void @llvm.lifetime.end.p0(i64 4, ptr %9) #5
  br label %39

39:                                               ; preds = %17
  %40 = load i32, ptr %7, align 4, !tbaa !9
  %41 = add nsw i32 %40, 1
  store i32 %41, ptr %7, align 4, !tbaa !9
  br label %13, !llvm.loop !32

42:                                               ; preds = %13
  call void @llvm.lifetime.end.p0(i64 4, ptr %8) #5
  call void @llvm.lifetime.end.p0(i64 4, ptr %7) #5
  ret void
}